; Function Attrs: mustprogress nounwind willreturn uwtable
define void @Llb_Nonlin4RemoveVar(ptr noundef readonly captures(none) %0, ptr noundef captures(none) %1) local_unnamed_addr #0 {
  %3 = getelementptr inbounds nuw i8, ptr %0, i64 32
  %4 = load ptr, ptr %3, align 8, !tbaa !3
  %5 = load i32, ptr %1, align 8, !tbaa !14
  %6 = sext i32 %5 to i64
  %7 = getelementptr inbounds ptr, ptr %4, i64 %6
  store ptr null, ptr %7, align 8, !tbaa !16
  %8 = getelementptr inbounds nuw i8, ptr %1, i64 8
  %9 = load ptr, ptr %8, align 8, !tbaa !18
  %10 = getelementptr inbounds nuw i8, ptr %9, i64 8
  %11 = load ptr, ptr %10, align 8, !tbaa !19
  %.not.i = icmp eq ptr %11, null
  br i1 %.not.i, label %Vec_IntFree.exit, label %12

12:                                               ; preds = %2
  tail call void @free(ptr noundef nonnull %11) #14
  br label %Vec_IntFree.exit

Vec_IntFree.exit:                                 ; preds = %2, %12
  tail call void @free(ptr noundef nonnull %9) #14
  tail call void @free(ptr noundef nonnull %1) #14
  ret void
}